target datalayout = "e-m:e-p270:32:32-p271:32:32-p272:64:64-i64:64-i128:128-f80:128-n8:16:32:64-S128"
target triple = "x86_64-pc-linux-gnu"

%"class.std::__cxx11::basic_string" = type { %"struct.std::__cxx11::basic_string<char>::_Alloc_hider", i64, %union.anon }
%"struct.std::__cxx11::basic_string<char>::_Alloc_hider" = type { ptr }
%union.anon = type { i64, [8 x i8] }
%"class.std::allocator" = type { i8 }

@.str.15 = private unnamed_addr constant [18 x i8] c"Invalid action ID\00", align 1

; Function Attrs: mustprogress uwtable
define noundef i32 @_ZN10open_spiel9dou_dizhu18GetNumCardsPerRankEi(i32 noundef %0) #5 personality ptr @__gxx_personality_v0 {
  %2 = alloca i32, align 4
  %3 = alloca i32, align 4
  %4 = alloca %"class.std::__cxx11::basic_string", align 8
  %5 = alloca %"class.std::allocator", align 1
  %6 = alloca ptr, align 8
  %7 = alloca i32, align 4
  store i32 %0, ptr %2, align 4
  %8 = load i32, ptr %2, align 4
  %9 = icmp sge i32 %8, 4
  br i1 %9, label %10, label %14

10:                                               ; preds = %1
  %11 = load i32, ptr %2, align 4
  %12 = icmp slt i32 %11, 55
  br i1 %12, label %13, label %14

13:                                               ; preds = %10
  store i32 1, ptr %3, align 4
  br label %56

14:                                               ; preds = %10, %1
  %15 = load i32, ptr %2, align 4
  %16 = icmp sge i32 %15, 55
  br i1 %16, label %17, label %21

17:                                               ; preds = %14
  %18 = load i32, ptr %2, align 4
  %19 = icmp slt i32 %18, 120
  br i1 %19, label %20, label %21

20:                                               ; preds = %17
  store i32 2, ptr %3, align 4
  br label %55

21:                                               ; preds = %17, %14
  %22 = load i32, ptr %2, align 4
  %23 = icmp sge i32 %22, 120
  br i1 %23, label %24, label %27

24:                                               ; preds = %21
  %25 = load i32, ptr %2, align 4
  %26 = icmp slt i32 %25, 133
  br i1 %26, label %33, label %27

27:                                               ; preds = %24, %21
  %28 = load i32, ptr %2, align 4
  %29 = icmp sge i32 %28, 471
  br i1 %29, label %30, label %34

30:                                               ; preds = %27
  %31 = load i32, ptr %2, align 4
  %32 = icmp slt i32 %31, 516
  br i1 %32, label %33, label %34

33:                                               ; preds = %30, %24
  store i32 3, ptr %3, align 4
  br label %54

34:                                               ; preds = %30, %27
  %35 = load i32, ptr %2, align 4
  %36 = icmp sge i32 %35, 26043
  br i1 %36, label %37, label %41

37:                                               ; preds = %34
  %38 = load i32, ptr %2, align 4
  %39 = icmp slt i32 %38, 26056
  br i1 %39, label %40, label %41

40:                                               ; preds = %37
  store i32 4, ptr %3, align 4
  br label %53

41:                                               ; preds = %37, %34
  call void @_ZNSaIcEC1Ev(ptr noundef nonnull align 1 dereferenceable(1) %5) #3
  invoke void @_ZNSt7__cxx1112basic_stringIcSt11char_traitsIcESaIcEEC2IS3_EEPKcRKS3_(ptr noundef nonnull align 8 dereferenceable(32) %4, ptr noundef @.str.15, ptr noundef nonnull align 1 dereferenceable(1) %5)
          to label %42 unwind label %44

42:                                               ; preds = %41
  invoke void @_ZN10open_spiel15SpielFatalErrorERKNSt7__cxx1112basic_stringIcSt11char_traitsIcESaIcEEE(ptr noundef nonnull align 8 dereferenceable(32) %4) #14
          to label %43 unwind label %48

43:                                               ; preds = %42
  unreachable

44:                                               ; preds = %41
  %45 = landingpad { ptr, i32 }
          cleanup
  %46 = extractvalue { ptr, i32 } %45, 0
  store ptr %46, ptr %6, align 8
  %47 = extractvalue { ptr, i32 } %45, 1
  store i32 %47, ptr %7, align 4
  br label %52

48:                                               ; preds = %42
  %49 = landingpad { ptr, i32 }
          cleanup
  %50 = extractvalue { ptr, i32 } %49, 0
  store ptr %50, ptr %6, align 8
  %51 = extractvalue { ptr, i32 } %49, 1
  store i32 %51, ptr %7, align 4
  call void @_ZNSt7__cxx1112basic_stringIcSt11char_traitsIcESaIcEED1Ev(ptr noundef nonnull align 8 dereferenceable(32) %4) #3
  br label %52

52:                                               ; preds = %48, %44
  call void @_ZNSaIcED1Ev(ptr noundef nonnull align 1 dereferenceable(1) %5) #3
  br label %58

53:                                               ; preds = %40
  br label %54

54:                                               ; preds = %53, %33
  br label %55

55:                                               ; preds = %54, %20
  br label %56

56:                                               ; preds = %55, %13
  %57 = load i32, ptr %3, align 4
  ret i32 %57

58:                                               ; preds = %52
  %59 = load ptr, ptr %6, align 8
  %60 = load i32, ptr %7, align 4
  %61 = insertvalue { ptr, i32 } poison, ptr %59, 0
  %62 = insertvalue { ptr, i32 } %61, i32 %60, 1
  resume { ptr, i32 } %62
}