; Function Attrs: mustprogress uwtable
define noundef range(i32 1, 5) i32 @_ZN10open_spiel9dou_dizhu18GetNumCardsPerRankEi(i32 noundef %0) local_unnamed_addr #4 personality ptr @__gxx_personality_v0 {
  %2 = alloca %"class.std::__cxx11::basic_string", align 8
  %3 = alloca %"class.std::allocator", align 1
  %4 = add i32 %0, -4
  %or.cond = icmp ult i32 %4, 51
  br i1 %or.cond, label %20, label %5

5:                                                ; preds = %1
  %6 = add i32 %0, -55
  %or.cond3 = icmp ult i32 %6, 65
  br i1 %or.cond3, label %20, label %7

7:                                                ; preds = %5
  %8 = add i32 %0, -120
  %or.cond5 = icmp ult i32 %8, 13
  %9 = add i32 %0, -471
  %or.cond7 = icmp ult i32 %9, 45
  %or.cond24 = or i1 %or.cond5, %or.cond7
  br i1 %or.cond24, label %20, label %10

10:                                               ; preds = %7
  %11 = add i32 %0, -26043
  %or.cond9 = icmp ult i32 %11, 13
  br i1 %or.cond9, label %20, label %12

12:                                               ; preds = %10
  call void @_ZNSaIcEC1Ev(ptr noundef nonnull align 1 dereferenceable(1) %3) #19
  invoke void @_ZNSt7__cxx1112basic_stringIcSt11char_traitsIcESaIcEEC2IS3_EEPKcRKS3_(ptr noundef nonnull align 8 dereferenceable(32) %2, ptr noundef nonnull @.str.15, ptr noundef nonnull align 1 dereferenceable(1) %3)
          to label %13 unwind label %15

13:                                               ; preds = %12
  invoke void @_ZN10open_spiel15SpielFatalErrorERKNSt7__cxx1112basic_stringIcSt11char_traitsIcESaIcEEE(ptr noundef nonnull align 8 dereferenceable(32) %2) #20
          to label %14 unwind label %17

14:                                               ; preds = %13
  unreachable

15:                                               ; preds = %12
  %16 = landingpad { ptr, i32 }
          cleanup
  br label %19

17:                                               ; preds = %13
  %18 = landingpad { ptr, i32 }
          cleanup
  call void @_ZNSt7__cxx1112basic_stringIcSt11char_traitsIcESaIcEED1Ev(ptr noundef nonnull align 8 dereferenceable(32) %2) #19
  br label %19

19:                                               ; preds = %17, %15
  %.pn = phi { ptr, i32 } [ %18, %17 ], [ %16, %15 ]
  call void @_ZNSaIcED1Ev(ptr noundef nonnull align 1 dereferenceable(1) %3) #19
  resume { ptr, i32 } %.pn

20:                                               ; preds = %10, %7, %5, %1
  %.022 = phi i32 [ 1, %1 ], [ 2, %5 ], [ 3, %7 ], [ 4, %10 ]
  ret i32 %.022
}